target datalayout = "e-m:e-p270:32:32-p271:32:32-p272:64:64-i64:64-i128:128-f80:128-n8:16:32:64-S128"
target triple = "x86_64-pc-linux-gnu"

%struct.darktable_t = type { %struct.dt_codepath_t, i32, i32, ptr, ptr, ptr, ptr, ptr, ptr, ptr, ptr, ptr, ptr, ptr, ptr, ptr, ptr, ptr, ptr, ptr, ptr, ptr, ptr, ptr, ptr, ptr, ptr, ptr, ptr, ptr, [64 x %struct.dt_pthread_mutex_t], %struct.dt_pthread_mutex_t, %struct.dt_pthread_mutex_t, %struct.dt_pthread_mutex_t, %struct.dt_pthread_mutex_t, %struct.dt_pthread_mutex_t, ptr, ptr, ptr, ptr, ptr, ptr, ptr, ptr, ptr, ptr, ptr, ptr, ptr, %struct.dt_lua_state_t, ptr, double, ptr, i32, [47 x i32], i32, i32, ptr, ptr, %struct.dt_sys_resources_t, %struct.dt_backthumb_t, %struct.dt_gimp_t }
%struct.dt_codepath_t = type { i8, [3 x i8] }
%struct.dt_pthread_mutex_t = type { %union.pthread_mutex_t }
%union.pthread_mutex_t = type { %struct.__pthread_mutex_s }
%struct.__pthread_mutex_s = type { i32, i32, i32, i32, i32, i16, i16, %struct.__pthread_internal_list }
%struct.__pthread_internal_list = type { ptr, ptr }
%struct.dt_lua_state_t = type { i32 }
%struct.dt_sys_resources_t = type { i64, i64, ptr, ptr, i32 }
%struct.dt_backthumb_t = type { double, double, i32, i32, i32, i32 }
%struct.dt_gimp_t = type { i32, ptr, ptr, i32, i32 }
%struct.dt_camctl_t = type { %struct.dt_pthread_mutex_t, %struct.dt_pthread_mutex_t, i64, ptr, ptr, ptr, ptr, ptr, ptr, ptr, ptr, i32, i32, i32 }
%struct.dt_camera_t = type { ptr, ptr, %struct.CameraText, ptr, ptr, %struct.dt_pthread_mutex_t, i32, i32, i32, i32, i32, i32, i32, i32, i32, ptr, %struct.dt_pthread_mutex_t, ptr, %struct.anon, ptr, ptr, i32, i32, i32, i32, ptr, i32, i32, i32, i32, i32, i32, i32, i32, i64, %struct.dt_pthread_mutex_t, %struct.dt_pthread_mutex_t }
%struct.CameraText = type { [32768 x i8] }
%struct.anon = type { ptr, i32 }

@darktable = external global %struct.darktable_t, align 8
@.str.35 = private unnamed_addr constant [81 x i8] c"[camera_control] Failed to get next choice of property from camera, camera==NULL\00", align 1

; Function Attrs: inlinehint nounwind uwtable
define internal i32 @dt_pthread_mutex_unlock(ptr noundef %0) #4 {
  %2 = alloca ptr, align 8
  store ptr %0, ptr %2, align 8, !tbaa !91
  %3 = load ptr, ptr %2, align 8, !tbaa !91
  %4 = getelementptr inbounds nuw %struct.dt_pthread_mutex_t, ptr %3, i32 0, i32 0
  %5 = call i32 @pthread_mutex_unlock(ptr noundef %4) #10
  ret i32 %5
}

; Function Attrs: inlinehint nounwind uwtable
define internal i32 @dt_pthread_mutex_lock(ptr noundef %0) #4 {
  %2 = alloca ptr, align 8
  store ptr %0, ptr %2, align 8, !tbaa !91
  %3 = load ptr, ptr %2, align 8, !tbaa !91
  %4 = getelementptr inbounds nuw %struct.dt_pthread_mutex_t, ptr %3, i32 0, i32 0
  %5 = call i32 @pthread_mutex_lock(ptr noundef %4) #10
  ret i32 %5
}

; Function Attrs: nounwind uwtable
define ptr @dt_camctl_camera_property_get_next_choice(ptr noundef %0, ptr noundef %1, ptr noundef %2) #0 {
  %4 = alloca ptr, align 8
  %5 = alloca ptr, align 8
  %6 = alloca ptr, align 8
  %7 = alloca ptr, align 8
  %8 = alloca ptr, align 8
  %9 = alloca ptr, align 8
  %10 = alloca i32, align 4
  %11 = alloca ptr, align 8
  store ptr %0, ptr %5, align 8, !tbaa !6
  store ptr %1, ptr %6, align 8, !tbaa !21
  store ptr %2, ptr %7, align 8, !tbaa !63
  call void @llvm.lifetime.start.p0(i64 8, ptr %8) #10
  store ptr null, ptr %8, align 8, !tbaa !63
  call void @llvm.lifetime.start.p0(i64 8, ptr %9) #10
  %12 = load ptr, ptr %5, align 8, !tbaa !6
  store ptr %12, ptr %9, align 8, !tbaa !6
  %13 = load ptr, ptr %6, align 8, !tbaa !21
  %14 = icmp ne ptr %13, null
  br i1 %14, label %39, label %15

15:                                               ; preds = %3
  %16 = load ptr, ptr %9, align 8, !tbaa !6
  %17 = getelementptr inbounds nuw %struct.dt_camctl_t, ptr %16, i32 0, i32 10
  %18 = load ptr, ptr %17, align 8, !tbaa !11
  store ptr %18, ptr %6, align 8, !tbaa !21
  %19 = icmp eq ptr %18, null
  br i1 %19, label %20, label %39

20:                                               ; preds = %15
  %21 = load ptr, ptr %9, align 8, !tbaa !6
  %22 = getelementptr inbounds nuw %struct.dt_camctl_t, ptr %21, i32 0, i32 9
  %23 = load ptr, ptr %22, align 8, !tbaa !65
  store ptr %23, ptr %6, align 8, !tbaa !21
  %24 = icmp eq ptr %23, null
  br i1 %24, label %25, label %39

25:                                               ; preds = %20
  br label %26

26:                                               ; preds = %25
  %27 = load i32, ptr getelementptr inbounds nuw (%struct.darktable_t, ptr @darktable, i32 0, i32 2), align 8, !tbaa !22
  %28 = and i32 32, %27
  %29 = icmp ne i32 %28, 0
  br i1 %29, label %30, label %36

30:                                               ; preds = %26
  %31 = load i32, ptr getelementptr inbounds nuw (%struct.darktable_t, ptr @darktable, i32 0, i32 2), align 8, !tbaa !22
  %32 = xor i32 %31, -1
  %33 = and i32 0, %32
  %34 = icmp ne i32 %33, 0
  br i1 %34, label %36, label %35

35:                                               ; preds = %30
  call void (ptr, ...) @dt_print_ext(ptr noundef @.str.35)
  br label %36

36:                                               ; preds = %35, %30, %26
  br label %37

37:                                               ; preds = %36
  br label %38

38:                                               ; preds = %37
  store ptr null, ptr %4, align 8
  store i32 1, ptr %10, align 4
  br label %84

39:                                               ; preds = %20, %15, %3
  call void @llvm.lifetime.start.p0(i64 8, ptr %11) #10
  %40 = load ptr, ptr %6, align 8, !tbaa !21
  store ptr %40, ptr %11, align 8, !tbaa !21
  %41 = load ptr, ptr %11, align 8, !tbaa !21
  %42 = getelementptr inbounds nuw %struct.dt_camera_t, ptr %41, i32 0, i32 5
  %43 = call i32 @dt_pthread_mutex_lock(ptr noundef %42)
  %44 = load ptr, ptr %11, align 8, !tbaa !21
  %45 = getelementptr inbounds nuw %struct.dt_camera_t, ptr %44, i32 0, i32 18
  %46 = getelementptr inbounds nuw %struct.anon, ptr %45, i32 0, i32 0
  %47 = load ptr, ptr %46, align 8, !tbaa !185
  %48 = icmp ne ptr %47, null
  br i1 %48, label %49, label %79

49:                                               ; preds = %39
  %50 = load ptr, ptr %11, align 8, !tbaa !21
  %51 = getelementptr inbounds nuw %struct.dt_camera_t, ptr %50, i32 0, i32 18
  %52 = getelementptr inbounds nuw %struct.anon, ptr %51, i32 0, i32 1
  %53 = load i32, ptr %52, align 8, !tbaa !184
  %54 = add i32 %53, 1
  store i32 %54, ptr %52, align 8, !tbaa !184
  %55 = load ptr, ptr %11, align 8, !tbaa !21
  %56 = getelementptr inbounds nuw %struct.dt_camera_t, ptr %55, i32 0, i32 18
  %57 = getelementptr inbounds nuw %struct.anon, ptr %56, i32 0, i32 0
  %58 = load ptr, ptr %57, align 8, !tbaa !185
  %59 = call i32 @gp_widget_count_choices(ptr noundef %58)
  %60 = icmp ult i32 %54, %59
  br i1 %60, label %61, label %71

61:                                               ; preds = %49
  %62 = load ptr, ptr %11, align 8, !tbaa !21
  %63 = getelementptr inbounds nuw %struct.dt_camera_t, ptr %62, i32 0, i32 18
  %64 = getelementptr inbounds nuw %struct.anon, ptr %63, i32 0, i32 0
  %65 = load ptr, ptr %64, align 8, !tbaa !185
  %66 = load ptr, ptr %11, align 8, !tbaa !21
  %67 = getelementptr inbounds nuw %struct.dt_camera_t, ptr %66, i32 0, i32 18
  %68 = getelementptr inbounds nuw %struct.anon, ptr %67, i32 0, i32 1
  %69 = load i32, ptr %68, align 8, !tbaa !184
  %70 = call i32 @gp_widget_get_choice(ptr noundef %65, i32 noundef %69, ptr noundef %8)
  br label %78

71:                                               ; preds = %49
  %72 = load ptr, ptr %11, align 8, !tbaa !21
  %73 = getelementptr inbounds nuw %struct.dt_camera_t, ptr %72, i32 0, i32 18
  %74 = getelementptr inbounds nuw %struct.anon, ptr %73, i32 0, i32 1
  store i32 0, ptr %74, align 8, !tbaa !184
  %75 = load ptr, ptr %11, align 8, !tbaa !21
  %76 = getelementptr inbounds nuw %struct.dt_camera_t, ptr %75, i32 0, i32 18
  %77 = getelementptr inbounds nuw %struct.anon, ptr %76, i32 0, i32 0
  store ptr null, ptr %77, align 8, !tbaa !185
  br label %78

78:                                               ; preds = %71, %61
  br label %79

79:                                               ; preds = %78, %39
  %80 = load ptr, ptr %11, align 8, !tbaa !21
  %81 = getelementptr inbounds nuw %struct.dt_camera_t, ptr %80, i32 0, i32 5
  %82 = call i32 @dt_pthread_mutex_unlock(ptr noundef %81)
  %83 = load ptr, ptr %8, align 8, !tbaa !63
  store ptr %83, ptr %4, align 8
  store i32 1, ptr %10, align 4
  call void @llvm.lifetime.end.p0(i64 8, ptr %11) #10
  br label %84

84:                                               ; preds = %79, %38
  call void @llvm.lifetime.end.p0(i64 8, ptr %9) #10
  call void @llvm.lifetime.end.p0(i64 8, ptr %8) #10
  %85 = load ptr, ptr %4, align 8
  ret ptr %85
}