; Function Attrs: nounwind uwtable
define ptr @dt_camctl_camera_property_get_next_choice(ptr noundef readonly captures(none) %0, ptr noundef %1, ptr noundef readnone captures(none) %2) local_unnamed_addr #0 {
  %4 = alloca ptr, align 8
  call void @llvm.lifetime.start.p0(i64 8, ptr nonnull %4) #15
  store ptr null, ptr %4, align 8, !tbaa !103
  %.not = icmp eq ptr %1, null
  br i1 %.not, label %5, label %17

5:                                                ; preds = %3
  %6 = getelementptr inbounds nuw i8, ptr %0, i64 144
  %7 = load ptr, ptr %6, align 8, !tbaa !6
  %8 = icmp eq ptr %7, null
  br i1 %8, label %9, label %17

9:                                                ; preds = %5
  %10 = getelementptr inbounds nuw i8, ptr %0, i64 136
  %11 = load ptr, ptr %10, align 8, !tbaa !61
  %12 = icmp eq ptr %11, null
  br i1 %12, label %13, label %17

13:                                               ; preds = %9
  %14 = load i32, ptr getelementptr inbounds nuw (i8, ptr @darktable, i64 8), align 8, !tbaa !19
  %15 = and i32 %14, 32
  %.not19 = icmp eq i32 %15, 0
  br i1 %.not19, label %36, label %16

16:                                               ; preds = %13
  tail call void (ptr, ...) @dt_print_ext(ptr noundef nonnull @.str.35) #15
  br label %36

17:                                               ; preds = %9, %5, %3
  %.015 = phi ptr [ %1, %3 ], [ %11, %9 ], [ %7, %5 ]
  %18 = getelementptr inbounds nuw i8, ptr %.015, i64 32800
  %19 = tail call i32 @pthread_mutex_lock(ptr noundef nonnull %18) #15
  %20 = getelementptr inbounds nuw i8, ptr %.015, i64 32936
  %21 = load ptr, ptr %20, align 8, !tbaa !206
  %.not20 = icmp eq ptr %21, null
  br i1 %.not20, label %33, label %22

22:                                               ; preds = %17
  %23 = getelementptr inbounds nuw i8, ptr %.015, i64 32944
  %24 = load i32, ptr %23, align 8, !tbaa !205
  %25 = add i32 %24, 1
  store i32 %25, ptr %23, align 8, !tbaa !205
  %26 = tail call i32 @gp_widget_count_choices(ptr noundef nonnull %21) #15
  %27 = icmp ult i32 %25, %26
  br i1 %27, label %28, label %32

28:                                               ; preds = %22
  %29 = load ptr, ptr %20, align 8, !tbaa !206
  %30 = load i32, ptr %23, align 8, !tbaa !205
  %31 = call i32 @gp_widget_get_choice(ptr noundef %29, i32 noundef %30, ptr noundef nonnull %4) #15
  br label %33

32:                                               ; preds = %22
  store i32 0, ptr %23, align 8, !tbaa !205
  store ptr null, ptr %20, align 8, !tbaa !206
  br label %33

33:                                               ; preds = %28, %32, %17
  %34 = call i32 @pthread_mutex_unlock(ptr noundef nonnull %18) #15
  %35 = load ptr, ptr %4, align 8, !tbaa !103
  br label %36

36:                                               ; preds = %13, %16, %33
  %.0 = phi ptr [ %35, %33 ], [ null, %16 ], [ null, %13 ]
  call void @llvm.lifetime.end.p0(i64 8, ptr nonnull %4) #15
  ret ptr %.0
}